target datalayout = "e-m:e-p270:32:32-p271:32:32-p272:64:64-i64:64-i128:128-f80:128-n8:16:32:64-S128"
target triple = "x86_64-pc-linux-gnu"

%struct.PaPulseAudio_HostApiRepresentation = type { %struct.PaUtilHostApiRepresentation, %struct.PaUtilStreamInterface, %struct.PaUtilStreamInterface, ptr, i32, [1024 x %struct.PaDeviceInfo], [1024 x ptr], %struct.pa_sample_spec, ptr, ptr, ptr, i32, ptr }
%struct.PaUtilHostApiRepresentation = type { %struct.PaUtilPrivatePaFrontHostApiInfo, %struct.PaHostApiInfo, ptr, ptr, ptr, ptr }
%struct.PaUtilPrivatePaFrontHostApiInfo = type { i64 }
%struct.PaHostApiInfo = type { i32, i32, ptr, i32, i32, i32 }
%struct.PaUtilStreamInterface = type { ptr, ptr, ptr, ptr, ptr, ptr, ptr, ptr, ptr, ptr, ptr, ptr }
%struct.PaDeviceInfo = type { i32, ptr, i32, i32, i32, double, double, double, double, double }
%struct.pa_sample_spec = type { i32, i32, i8 }

@__const.PaPulseAudio_New.fd = private unnamed_addr constant [2 x i32] [i32 -1, i32 -1], align 4
@.str = private unnamed_addr constant [88 x i8] c"PaPulseAudio_HostApiRepresentation: Can't allocate memory required for using PulseAudio\00", align 1
@.str.1 = private unnamed_addr constant [71 x i8] c"PaPulseAudio_HostApiRepresentation: Can't allocate PulseAudio mainloop\00", align 1
@.str.2 = private unnamed_addr constant [3 x i8] c"%s\00", align 1
@__progname = external global ptr, align 8
@.str.3 = private unnamed_addr constant [73 x i8] c"PaPulseAudio_HostApiRepresentation: Can't instantiate PulseAudio context\00", align 1
@.str.4 = private unnamed_addr constant [68 x i8] c"PaPulseAudio_HostApiRepresentation: PulseAudio can't start mainloop\00", align 1

; Function Attrs: nounwind uwtable
define ptr @PaPulseAudio_New() #0 {
  %1 = alloca ptr, align 8
  %2 = alloca ptr, align 8
  %3 = alloca [2 x i32], align 4
  %4 = alloca [1024 x i8], align 16
  call void @llvm.memcpy.p0.p0.i64(ptr align 4 %3, ptr align 4 @__const.PaPulseAudio_New.fd, i64 8, i1 false)
  %5 = call ptr @PaUtil_AllocateZeroInitializedMemory(i64 noundef 82256)
  store ptr %5, ptr %2, align 8
  %6 = load ptr, ptr %2, align 8
  %7 = icmp ne ptr %6, null
  br i1 %7, label %9, label %8

8:                                                ; preds = %0
  call void @PaUtil_SetLastHostErrorInfo(i32 noundef 0, i64 noundef 0, ptr noundef @.str)
  store ptr null, ptr %1, align 8
  br label %59

9:                                                ; preds = %0
  %10 = load ptr, ptr %2, align 8
  call void @llvm.memset.p0.i64(ptr align 8 %10, i8 0, i64 82256, i1 false)
  %11 = call ptr @pa_threaded_mainloop_new()
  %12 = load ptr, ptr %2, align 8
  %13 = getelementptr inbounds nuw %struct.PaPulseAudio_HostApiRepresentation, ptr %12, i32 0, i32 8
  store ptr %11, ptr %13, align 8
  %14 = load ptr, ptr %2, align 8
  %15 = getelementptr inbounds nuw %struct.PaPulseAudio_HostApiRepresentation, ptr %14, i32 0, i32 8
  %16 = load ptr, ptr %15, align 8
  %17 = icmp ne ptr %16, null
  br i1 %17, label %19, label %18

18:                                               ; preds = %9
  call void @PaUtil_SetLastHostErrorInfo(i32 noundef 0, i64 noundef 0, ptr noundef @.str.1)
  br label %57

19:                                               ; preds = %9
  %20 = load ptr, ptr %2, align 8
  %21 = getelementptr inbounds nuw %struct.PaPulseAudio_HostApiRepresentation, ptr %20, i32 0, i32 8
  %22 = load ptr, ptr %21, align 8
  %23 = call ptr @pa_threaded_mainloop_get_api(ptr noundef %22)
  %24 = load ptr, ptr %2, align 8
  %25 = getelementptr inbounds nuw %struct.PaPulseAudio_HostApiRepresentation, ptr %24, i32 0, i32 9
  store ptr %23, ptr %25, align 8
  %26 = getelementptr inbounds [1024 x i8], ptr %4, i64 0, i64 0
  %27 = load ptr, ptr @__progname, align 8
  %28 = call i32 (ptr, i64, ptr, ...) @snprintf(ptr noundef %26, i64 noundef 1024, ptr noundef @.str.2, ptr noundef %27) #8
  %29 = load ptr, ptr %2, align 8
  %30 = getelementptr inbounds nuw %struct.PaPulseAudio_HostApiRepresentation, ptr %29, i32 0, i32 8
  %31 = load ptr, ptr %30, align 8
  %32 = call ptr @pa_threaded_mainloop_get_api(ptr noundef %31)
  %33 = getelementptr inbounds [1024 x i8], ptr %4, i64 0, i64 0
  %34 = call ptr @pa_context_new(ptr noundef %32, ptr noundef %33)
  %35 = load ptr, ptr %2, align 8
  %36 = getelementptr inbounds nuw %struct.PaPulseAudio_HostApiRepresentation, ptr %35, i32 0, i32 10
  store ptr %34, ptr %36, align 8
  %37 = load ptr, ptr %2, align 8
  %38 = getelementptr inbounds nuw %struct.PaPulseAudio_HostApiRepresentation, ptr %37, i32 0, i32 10
  %39 = load ptr, ptr %38, align 8
  %40 = icmp ne ptr %39, null
  br i1 %40, label %42, label %41

41:                                               ; preds = %19
  call void @PaUtil_SetLastHostErrorInfo(i32 noundef 0, i64 noundef 0, ptr noundef @.str.3)
  br label %57

42:                                               ; preds = %19
  %43 = load ptr, ptr %2, align 8
  %44 = getelementptr inbounds nuw %struct.PaPulseAudio_HostApiRepresentation, ptr %43, i32 0, i32 10
  %45 = load ptr, ptr %44, align 8
  %46 = load ptr, ptr %2, align 8
  call void @pa_context_set_state_callback(ptr noundef %45, ptr noundef @PaPulseAudio_CheckContextStateCb, ptr noundef %46)
  %47 = load ptr, ptr %2, align 8
  %48 = getelementptr inbounds nuw %struct.PaPulseAudio_HostApiRepresentation, ptr %47, i32 0, i32 8
  %49 = load ptr, ptr %48, align 8
  %50 = call i32 @pa_threaded_mainloop_start(ptr noundef %49)
  %51 = icmp slt i32 %50, 0
  br i1 %51, label %52, label %53

52:                                               ; preds = %42
  call void @PaUtil_SetLastHostErrorInfo(i32 noundef 0, i64 noundef 0, ptr noundef @.str.4)
  br label %57

53:                                               ; preds = %42
  %54 = load ptr, ptr %2, align 8
  %55 = getelementptr inbounds nuw %struct.PaPulseAudio_HostApiRepresentation, ptr %54, i32 0, i32 11
  store i32 0, ptr %55, align 8
  %56 = load ptr, ptr %2, align 8
  store ptr %56, ptr %1, align 8
  br label %59

57:                                               ; preds = %52, %41, %18
  %58 = load ptr, ptr %2, align 8
  call void @PaPulseAudio_Free(ptr noundef %58)
  store ptr null, ptr %1, align 8
  br label %59

59:                                               ; preds = %57, %53, %8
  %60 = load ptr, ptr %1, align 8
  ret ptr %60
}