; Function Attrs: nounwind uwtable
define ptr @PaPulseAudio_New() local_unnamed_addr #0 {
  %1 = alloca [1024 x i8], align 16
  %2 = tail call ptr @PaUtil_AllocateZeroInitializedMemory(i64 noundef 82256) #13
  %.not = icmp eq ptr %2, null
  br i1 %.not, label %3, label %4

3:                                                ; preds = %0
  tail call void @PaUtil_SetLastHostErrorInfo(i32 noundef 0, i64 noundef 0, ptr noundef nonnull @.str) #13
  br label %26

4:                                                ; preds = %0
  tail call void @llvm.memset.p0.i64(ptr noundef nonnull align 8 dereferenceable(82256) %2, i8 0, i64 82256, i1 false)
  %5 = tail call ptr @pa_threaded_mainloop_new() #13
  %6 = getelementptr inbounds nuw i8, ptr %2, i64 82216
  store ptr %5, ptr %6, align 8
  %.not19 = icmp eq ptr %5, null
  br i1 %.not19, label %7, label %8

7:                                                ; preds = %4
  tail call void @PaUtil_SetLastHostErrorInfo(i32 noundef 0, i64 noundef 0, ptr noundef nonnull @.str.1) #13
  br label %25

8:                                                ; preds = %4
  %9 = tail call ptr @pa_threaded_mainloop_get_api(ptr noundef nonnull %5) #13
  %10 = getelementptr inbounds nuw i8, ptr %2, i64 82224
  store ptr %9, ptr %10, align 8
  %11 = load ptr, ptr @__progname, align 8
  %12 = call i32 (ptr, i64, ptr, ...) @snprintf(ptr noundef nonnull dereferenceable(1) %1, i64 noundef 1024, ptr noundef nonnull @.str.2, ptr noundef %11) #13
  %13 = load ptr, ptr %6, align 8
  %14 = tail call ptr @pa_threaded_mainloop_get_api(ptr noundef %13) #13
  %15 = call ptr @pa_context_new(ptr noundef %14, ptr noundef nonnull %1) #13
  %16 = getelementptr inbounds nuw i8, ptr %2, i64 82232
  store ptr %15, ptr %16, align 8
  %.not20 = icmp eq ptr %15, null
  br i1 %.not20, label %17, label %18

17:                                               ; preds = %8
  call void @PaUtil_SetLastHostErrorInfo(i32 noundef 0, i64 noundef 0, ptr noundef nonnull @.str.3) #13
  br label %25

18:                                               ; preds = %8
  call void @pa_context_set_state_callback(ptr noundef nonnull %15, ptr noundef nonnull @PaPulseAudio_CheckContextStateCb, ptr noundef nonnull %2) #13
  %19 = load ptr, ptr %6, align 8
  %20 = call i32 @pa_threaded_mainloop_start(ptr noundef %19) #13
  %21 = icmp slt i32 %20, 0
  br i1 %21, label %22, label %23

22:                                               ; preds = %18
  call void @PaUtil_SetLastHostErrorInfo(i32 noundef 0, i64 noundef 0, ptr noundef nonnull @.str.4) #13
  br label %25

23:                                               ; preds = %18
  %24 = getelementptr inbounds nuw i8, ptr %2, i64 82240
  store i32 0, ptr %24, align 8
  br label %26

25:                                               ; preds = %22, %17, %7
  call void @PaPulseAudio_Free(ptr noundef nonnull %2)
  br label %26

26:                                               ; preds = %25, %23, %3
  %.0 = phi ptr [ null, %25 ], [ %2, %23 ], [ null, %3 ]
  ret ptr %.0
}